; Function Attrs: nounwind uwtable
define dso_local void @strbuf_splice(ptr noundef captures(none) %0, i64 noundef %1, i64 noundef %2, ptr noundef readonly captures(none) %3, i64 noundef %4) local_unnamed_addr #3 {
  %6 = xor i64 %1, -1
  %7 = icmp ugt i64 %2, %6
  br i1 %7, label %8, label %9

8:                                                ; preds = %5
  tail call void (ptr, ...) @die(ptr noundef nonnull @.str) #24
  unreachable

9:                                                ; preds = %5
  %10 = getelementptr inbounds nuw i8, ptr %0, i64 8
  %11 = load i64, ptr %10, align 8, !tbaa !16
  %12 = icmp ugt i64 %1, %11
  br i1 %12, label %13, label %14

13:                                               ; preds = %9
  tail call void (ptr, ...) @die(ptr noundef nonnull @.str.1) #24
  unreachable

14:                                               ; preds = %9
  %15 = add i64 %2, %1
  %16 = icmp ugt i64 %15, %11
  br i1 %16, label %17, label %18

17:                                               ; preds = %14
  tail call void (ptr, ...) @die(ptr noundef nonnull @.str.2) #24
  unreachable

18:                                               ; preds = %14
  %.not = icmp ult i64 %4, %2
  %.pre = sub i64 %4, %2
  br i1 %.not, label %strbuf_grow.exit, label %19

19:                                               ; preds = %18
  %20 = load i64, ptr %0, align 8, !tbaa !15
  %.not.i = icmp eq i64 %20, 0
  %21 = icmp eq i64 %.pre, -1
  %22 = sub nuw i64 -2, %.pre
  %23 = icmp ult i64 %22, %11
  %or.cond = select i1 %21, i1 true, i1 %23
  br i1 %or.cond, label %24, label %25

24:                                               ; preds = %19
  tail call void (ptr, ...) @die(ptr noundef nonnull @.str) #24
  unreachable

25:                                               ; preds = %19
  br i1 %.not.i, label %26, label %28

26:                                               ; preds = %25
  %27 = getelementptr inbounds nuw i8, ptr %0, i64 16
  store ptr null, ptr %27, align 8, !tbaa !12
  br label %28

28:                                               ; preds = %26, %25
  %29 = add nuw i64 %.pre, 1
  %30 = add i64 %29, %11
  %31 = icmp ugt i64 %30, %20
  br i1 %31, label %st_mult.exit.i, label %38

st_mult.exit.i:                                   ; preds = %28
  %32 = mul i64 %20, 3
  %33 = add i64 %32, 48
  %34 = lshr i64 %33, 1
  %..i = tail call i64 @llvm.umax.i64(i64 %34, i64 %30)
  store i64 %..i, ptr %0, align 8, !tbaa !15
  %35 = getelementptr inbounds nuw i8, ptr %0, i64 16
  %36 = load ptr, ptr %35, align 8, !tbaa !12
  %37 = tail call ptr @xrealloc(ptr noundef %36, i64 noundef %..i) #25
  store ptr %37, ptr %35, align 8, !tbaa !12
  br label %38

38:                                               ; preds = %st_mult.exit.i, %28
  br i1 %.not.i, label %39, label %strbuf_grow.exit

39:                                               ; preds = %38
  %40 = getelementptr inbounds nuw i8, ptr %0, i64 16
  %41 = load ptr, ptr %40, align 8, !tbaa !12
  store i8 0, ptr %41, align 1, !tbaa !4
  br label %strbuf_grow.exit

strbuf_grow.exit:                                 ; preds = %18, %39, %38
  %42 = getelementptr inbounds nuw i8, ptr %0, i64 16
  %43 = load ptr, ptr %42, align 8, !tbaa !12
  %44 = getelementptr inbounds nuw i8, ptr %43, i64 %1
  %45 = getelementptr inbounds nuw i8, ptr %44, i64 %4
  %46 = getelementptr inbounds nuw i8, ptr %44, i64 %2
  %47 = load i64, ptr %10, align 8, !tbaa !16
  %48 = sub i64 %47, %15
  tail call void @llvm.memmove.p0.p0.i64(ptr align 1 %45, ptr align 1 %46, i64 %48, i1 false)
  %49 = load ptr, ptr %42, align 8, !tbaa !12
  %50 = getelementptr inbounds nuw i8, ptr %49, i64 %1
  tail call void @llvm.memcpy.p0.p0.i64(ptr align 1 %50, ptr align 1 %3, i64 %4, i1 false)
  %51 = load i64, ptr %10, align 8, !tbaa !16
  %52 = add i64 %.pre, %51
  %53 = load i64, ptr %0, align 8, !tbaa !15
  %spec.select.i = tail call i64 @llvm.usub.sat.i64(i64 %53, i64 1)
  %54 = icmp ugt i64 %52, %spec.select.i
  br i1 %54, label %55, label %56

55:                                               ; preds = %strbuf_grow.exit
  tail call void (ptr, i32, ptr, ...) @BUG_fl(ptr noundef nonnull @.str.28, i32 noundef 167, ptr noundef nonnull @.str.29) #24
  unreachable

56:                                               ; preds = %strbuf_grow.exit
  store i64 %52, ptr %10, align 8, !tbaa !16
  %57 = load ptr, ptr %42, align 8, !tbaa !12
  %.not9.i = icmp eq ptr %57, @strbuf_slopbuf
  br i1 %.not9.i, label %strbuf_setlen.exit, label %58

58:                                               ; preds = %56
  %59 = getelementptr inbounds nuw i8, ptr %57, i64 %52
  store i8 0, ptr %59, align 1, !tbaa !4
  br label %strbuf_setlen.exit

strbuf_setlen.exit:                               ; preds = %56, %58
  ret void
}